#include <math.h>
#include <stdio.h>
#include <stdlib.h>
#include <string.h>

int main ()
{
   char x[50],y[50];
   int i;
   for(i=0;i<50;i++)
  {
   scanf("%c",&x[i]);
   if (x[i]==32)
   break;
   }
   for(i=0;i<50;i++)
  {
   scanf("%c",&y[i]);
   if (y[i]==32)
   break;
   }
   int m=strlen(x),a=0;
   for(i=0;i<50;i++)
   {
      if(y[i]==x[0])
      { a=i;
    break;}
    }
   printf("%d",a);  
   return 0; 
}