; ModuleID = '45/91.c'
source_filename = "45/91.c"
target datalayout = "e-m:e-p270:32:32-p271:32:32-p272:64:64-i64:64-f80:128-n8:16:32:64-S128"
target triple = "x86_64-pc-linux-gnu"

@.str = private unnamed_addr constant [3 x i8] c"%c\00", align 1
@.str.1 = private unnamed_addr constant [3 x i8] c"%d\00", align 1

; Function Attrs: noinline nounwind uwtable
define dso_local i32 @main() #0 {
  %1 = alloca i32, align 4
  %2 = alloca [50 x i8], align 16
  %3 = alloca [50 x i8], align 16
  %4 = alloca i32, align 4
  %5 = alloca i32, align 4
  %6 = alloca i32, align 4
  store i32 0, i32* %1, align 4
  store i32 0, i32* %4, align 4
  br label %7

7:                                                ; preds = %23, %0
  %8 = load i32, i32* %4, align 4
  %9 = icmp slt i32 %8, 50
  br i1 %9, label %10, label %26

10:                                               ; preds = %7
  %11 = load i32, i32* %4, align 4
  %12 = sext i32 %11 to i64
  %13 = getelementptr inbounds [50 x i8], [50 x i8]* %2, i64 0, i64 %12
  %14 = call i32 (i8*, ...) @__isoc99_scanf(i8* getelementptr inbounds ([3 x i8], [3 x i8]* @.str, i64 0, i64 0), i8* %13)
  %15 = load i32, i32* %4, align 4
  %16 = sext i32 %15 to i64
  %17 = getelementptr inbounds [50 x i8], [50 x i8]* %2, i64 0, i64 %16
  %18 = load i8, i8* %17, align 1
  %19 = sext i8 %18 to i32
  %20 = icmp eq i32 %19, 32
  br i1 %20, label %21, label %22

21:                                               ; preds = %10
  br label %26

22:                                               ; preds = %10
  br label %23

23:                                               ; preds = %22
  %24 = load i32, i32* %4, align 4
  %25 = add nsw i32 %24, 1
  store i32 %25, i32* %4, align 4
  br label %7

26:                                               ; preds = %21, %7
  store i32 0, i32* %4, align 4
  br label %27

27:                                               ; preds = %43, %26
  %28 = load i32, i32* %4, align 4
  %29 = icmp slt i32 %28, 50
  br i1 %29, label %30, label %46

30:                                               ; preds = %27
  %31 = load i32, i32* %4, align 4
  %32 = sext i32 %31 to i64
  %33 = getelementptr inbounds [50 x i8], [50 x i8]* %3, i64 0, i64 %32
  %34 = call i32 (i8*, ...) @__isoc99_scanf(i8* getelementptr inbounds ([3 x i8], [3 x i8]* @.str, i64 0, i64 0), i8* %33)
  %35 = load i32, i32* %4, align 4
  %36 = sext i32 %35 to i64
  %37 = getelementptr inbounds [50 x i8], [50 x i8]* %3, i64 0, i64 %36
  %38 = load i8, i8* %37, align 1
  %39 = sext i8 %38 to i32
  %40 = icmp eq i32 %39, 32
  br i1 %40, label %41, label %42

41:                                               ; preds = %30
  br label %46

42:                                               ; preds = %30
  br label %43

43:                                               ; preds = %42
  %44 = load i32, i32* %4, align 4
  %45 = add nsw i32 %44, 1
  store i32 %45, i32* %4, align 4
  br label %27

46:                                               ; preds = %41, %27
  %47 = getelementptr inbounds [50 x i8], [50 x i8]* %2, i64 0, i64 0
  %48 = call i64 @strlen(i8* %47) #3
  %49 = trunc i64 %48 to i32
  store i32 %49, i32* %5, align 4
  store i32 0, i32* %6, align 4
  store i32 0, i32* %4, align 4
  br label %50

50:                                               ; preds = %66, %46
  %51 = load i32, i32* %4, align 4
  %52 = icmp slt i32 %51, 50
  br i1 %52, label %53, label %69

53:                                               ; preds = %50
  %54 = load i32, i32* %4, align 4
  %55 = sext i32 %54 to i64
  %56 = getelementptr inbounds [50 x i8], [50 x i8]* %3, i64 0, i64 %55
  %57 = load i8, i8* %56, align 1
  %58 = sext i8 %57 to i32
  %59 = getelementptr inbounds [50 x i8], [50 x i8]* %2, i64 0, i64 0
  %60 = load i8, i8* %59, align 16
  %61 = sext i8 %60 to i32
  %62 = icmp eq i32 %58, %61
  br i1 %62, label %63, label %65

63:                                               ; preds = %53
  %64 = load i32, i32* %4, align 4
  store i32 %64, i32* %6, align 4
  br label %69

65:                                               ; preds = %53
  br label %66

66:                                               ; preds = %65
  %67 = load i32, i32* %4, align 4
  %68 = add nsw i32 %67, 1
  store i32 %68, i32* %4, align 4
  br label %50

69:                                               ; preds = %63, %50
  %70 = load i32, i32* %6, align 4
  %71 = call i32 (i8*, ...) @printf(i8* getelementptr inbounds ([3 x i8], [3 x i8]* @.str.1, i64 0, i64 0), i32 %70)
  ret i32 0
}

declare dso_local i32 @__isoc99_scanf(i8*, ...) #1

; Function Attrs: nounwind readonly
declare dso_local i64 @strlen(i8*) #2

declare dso_local i32 @printf(i8*, ...) #1


!llvm.module.flags = !{!0}
!llvm.ident = !{!1}

!0 = !{i32 1, !"wchar_size", i32 4}
!1 = !{!"clang version 10.0.0-4ubuntu1 "}
