; ModuleID = 'source-C-CXX/44/91.c'
source_filename = "source-C-CXX/44/91.c"
target datalayout = "e-m:e-p270:32:32-p271:32:32-p272:64:64-i64:64-f80:128-n8:16:32:64-S128"
target triple = "x86_64-pc-linux-gnu"

@.str = private unnamed_addr constant [3 x i8] c"%c\00", align 1
@.str.1 = private unnamed_addr constant [3 x i8] c"%d\00", align 1

; Function Attrs: nofree nounwind sspstrong uwtable
define dso_local i32 @main() local_unnamed_addr #0 {
  %1 = alloca [50 x i8], align 16
  %2 = alloca [50 x i8], align 16
  %3 = getelementptr inbounds [50 x i8], [50 x i8]* %1, i64 0, i64 0
  call void @llvm.lifetime.start.p0i8(i64 50, i8* nonnull %3) #3
  %4 = getelementptr inbounds [50 x i8], [50 x i8]* %2, i64 0, i64 0
  call void @llvm.lifetime.start.p0i8(i64 50, i8* nonnull %4) #3
  br label %5

5:                                                ; preds = %5, %0
  %6 = phi i64 [ 0, %0 ], [ %11, %5 ]
  %7 = getelementptr inbounds [50 x i8], [50 x i8]* %1, i64 0, i64 %6
  %8 = call i32 (i8*, ...) @__isoc99_scanf(i8* getelementptr inbounds ([3 x i8], [3 x i8]* @.str, i64 0, i64 0), i8* nonnull %7)
  %9 = load i8, i8* %7, align 1, !tbaa !5
  %10 = icmp eq i8 %9, 32
  %11 = add nuw nsw i64 %6, 1
  %12 = icmp eq i64 %11, 50
  %13 = select i1 %10, i1 true, i1 %12
  br i1 %13, label %14, label %5, !llvm.loop !8

14:                                               ; preds = %5, %14
  %15 = phi i64 [ %20, %14 ], [ 0, %5 ]
  %16 = getelementptr inbounds [50 x i8], [50 x i8]* %2, i64 0, i64 %15
  %17 = call i32 (i8*, ...) @__isoc99_scanf(i8* getelementptr inbounds ([3 x i8], [3 x i8]* @.str, i64 0, i64 0), i8* nonnull %16)
  %18 = load i8, i8* %16, align 1, !tbaa !5
  %19 = icmp eq i8 %18, 32
  %20 = add nuw nsw i64 %15, 1
  %21 = icmp eq i64 %20, 50
  %22 = select i1 %19, i1 true, i1 %21
  br i1 %22, label %23, label %14, !llvm.loop !10

23:                                               ; preds = %14
  %24 = load i8, i8* %3, align 16
  %25 = load i8, i8* %4, align 16, !tbaa !5
  %26 = icmp eq i8 %25, %24
  br i1 %26, label %31, label %27

27:                                               ; preds = %23
  %28 = getelementptr inbounds [50 x i8], [50 x i8]* %2, i64 0, i64 1
  %29 = load i8, i8* %28, align 1, !tbaa !5
  %30 = icmp eq i8 %29, %24
  br i1 %30, label %31, label %34

31:                                               ; preds = %222, %218, %214, %210, %206, %202, %198, %194, %190, %186, %182, %178, %174, %170, %166, %162, %158, %154, %150, %146, %142, %138, %134, %130, %126, %122, %118, %114, %110, %106, %102, %98, %94, %90, %86, %82, %78, %74, %70, %66, %62, %58, %54, %50, %46, %42, %38, %34, %27, %23
  %32 = phi i32 [ 0, %23 ], [ 1, %27 ], [ 2, %34 ], [ 3, %38 ], [ 4, %42 ], [ 5, %46 ], [ 6, %50 ], [ 7, %54 ], [ 8, %58 ], [ 9, %62 ], [ 10, %66 ], [ 11, %70 ], [ 12, %74 ], [ 13, %78 ], [ 14, %82 ], [ 15, %86 ], [ 16, %90 ], [ 17, %94 ], [ 18, %98 ], [ 19, %102 ], [ 20, %106 ], [ 21, %110 ], [ 22, %114 ], [ 23, %118 ], [ 24, %122 ], [ 25, %126 ], [ 26, %130 ], [ 27, %134 ], [ 28, %138 ], [ 29, %142 ], [ 30, %146 ], [ 31, %150 ], [ 32, %154 ], [ 33, %158 ], [ 34, %162 ], [ 35, %166 ], [ 36, %170 ], [ 37, %174 ], [ 38, %178 ], [ 39, %182 ], [ 40, %186 ], [ 41, %190 ], [ 42, %194 ], [ 43, %198 ], [ 44, %202 ], [ 45, %206 ], [ 46, %210 ], [ 47, %214 ], [ 48, %218 ], [ %226, %222 ]
  %33 = call i32 (i8*, ...) @printf(i8* nonnull dereferenceable(1) getelementptr inbounds ([3 x i8], [3 x i8]* @.str.1, i64 0, i64 0), i32 %32)
  call void @llvm.lifetime.end.p0i8(i64 50, i8* nonnull %4) #3
  call void @llvm.lifetime.end.p0i8(i64 50, i8* nonnull %3) #3
  ret i32 0

34:                                               ; preds = %27
  %35 = getelementptr inbounds [50 x i8], [50 x i8]* %2, i64 0, i64 2
  %36 = load i8, i8* %35, align 2, !tbaa !5
  %37 = icmp eq i8 %36, %24
  br i1 %37, label %31, label %38

38:                                               ; preds = %34
  %39 = getelementptr inbounds [50 x i8], [50 x i8]* %2, i64 0, i64 3
  %40 = load i8, i8* %39, align 1, !tbaa !5
  %41 = icmp eq i8 %40, %24
  br i1 %41, label %31, label %42

42:                                               ; preds = %38
  %43 = getelementptr inbounds [50 x i8], [50 x i8]* %2, i64 0, i64 4
  %44 = load i8, i8* %43, align 4, !tbaa !5
  %45 = icmp eq i8 %44, %24
  br i1 %45, label %31, label %46

46:                                               ; preds = %42
  %47 = getelementptr inbounds [50 x i8], [50 x i8]* %2, i64 0, i64 5
  %48 = load i8, i8* %47, align 1, !tbaa !5
  %49 = icmp eq i8 %48, %24
  br i1 %49, label %31, label %50

50:                                               ; preds = %46
  %51 = getelementptr inbounds [50 x i8], [50 x i8]* %2, i64 0, i64 6
  %52 = load i8, i8* %51, align 2, !tbaa !5
  %53 = icmp eq i8 %52, %24
  br i1 %53, label %31, label %54

54:                                               ; preds = %50
  %55 = getelementptr inbounds [50 x i8], [50 x i8]* %2, i64 0, i64 7
  %56 = load i8, i8* %55, align 1, !tbaa !5
  %57 = icmp eq i8 %56, %24
  br i1 %57, label %31, label %58

58:                                               ; preds = %54
  %59 = getelementptr inbounds [50 x i8], [50 x i8]* %2, i64 0, i64 8
  %60 = load i8, i8* %59, align 8, !tbaa !5
  %61 = icmp eq i8 %60, %24
  br i1 %61, label %31, label %62

62:                                               ; preds = %58
  %63 = getelementptr inbounds [50 x i8], [50 x i8]* %2, i64 0, i64 9
  %64 = load i8, i8* %63, align 1, !tbaa !5
  %65 = icmp eq i8 %64, %24
  br i1 %65, label %31, label %66

66:                                               ; preds = %62
  %67 = getelementptr inbounds [50 x i8], [50 x i8]* %2, i64 0, i64 10
  %68 = load i8, i8* %67, align 2, !tbaa !5
  %69 = icmp eq i8 %68, %24
  br i1 %69, label %31, label %70

70:                                               ; preds = %66
  %71 = getelementptr inbounds [50 x i8], [50 x i8]* %2, i64 0, i64 11
  %72 = load i8, i8* %71, align 1, !tbaa !5
  %73 = icmp eq i8 %72, %24
  br i1 %73, label %31, label %74

74:                                               ; preds = %70
  %75 = getelementptr inbounds [50 x i8], [50 x i8]* %2, i64 0, i64 12
  %76 = load i8, i8* %75, align 4, !tbaa !5
  %77 = icmp eq i8 %76, %24
  br i1 %77, label %31, label %78

78:                                               ; preds = %74
  %79 = getelementptr inbounds [50 x i8], [50 x i8]* %2, i64 0, i64 13
  %80 = load i8, i8* %79, align 1, !tbaa !5
  %81 = icmp eq i8 %80, %24
  br i1 %81, label %31, label %82

82:                                               ; preds = %78
  %83 = getelementptr inbounds [50 x i8], [50 x i8]* %2, i64 0, i64 14
  %84 = load i8, i8* %83, align 2, !tbaa !5
  %85 = icmp eq i8 %84, %24
  br i1 %85, label %31, label %86

86:                                               ; preds = %82
  %87 = getelementptr inbounds [50 x i8], [50 x i8]* %2, i64 0, i64 15
  %88 = load i8, i8* %87, align 1, !tbaa !5
  %89 = icmp eq i8 %88, %24
  br i1 %89, label %31, label %90

90:                                               ; preds = %86
  %91 = getelementptr inbounds [50 x i8], [50 x i8]* %2, i64 0, i64 16
  %92 = load i8, i8* %91, align 16, !tbaa !5
  %93 = icmp eq i8 %92, %24
  br i1 %93, label %31, label %94

94:                                               ; preds = %90
  %95 = getelementptr inbounds [50 x i8], [50 x i8]* %2, i64 0, i64 17
  %96 = load i8, i8* %95, align 1, !tbaa !5
  %97 = icmp eq i8 %96, %24
  br i1 %97, label %31, label %98

98:                                               ; preds = %94
  %99 = getelementptr inbounds [50 x i8], [50 x i8]* %2, i64 0, i64 18
  %100 = load i8, i8* %99, align 2, !tbaa !5
  %101 = icmp eq i8 %100, %24
  br i1 %101, label %31, label %102

102:                                              ; preds = %98
  %103 = getelementptr inbounds [50 x i8], [50 x i8]* %2, i64 0, i64 19
  %104 = load i8, i8* %103, align 1, !tbaa !5
  %105 = icmp eq i8 %104, %24
  br i1 %105, label %31, label %106

106:                                              ; preds = %102
  %107 = getelementptr inbounds [50 x i8], [50 x i8]* %2, i64 0, i64 20
  %108 = load i8, i8* %107, align 4, !tbaa !5
  %109 = icmp eq i8 %108, %24
  br i1 %109, label %31, label %110

110:                                              ; preds = %106
  %111 = getelementptr inbounds [50 x i8], [50 x i8]* %2, i64 0, i64 21
  %112 = load i8, i8* %111, align 1, !tbaa !5
  %113 = icmp eq i8 %112, %24
  br i1 %113, label %31, label %114

114:                                              ; preds = %110
  %115 = getelementptr inbounds [50 x i8], [50 x i8]* %2, i64 0, i64 22
  %116 = load i8, i8* %115, align 2, !tbaa !5
  %117 = icmp eq i8 %116, %24
  br i1 %117, label %31, label %118

118:                                              ; preds = %114
  %119 = getelementptr inbounds [50 x i8], [50 x i8]* %2, i64 0, i64 23
  %120 = load i8, i8* %119, align 1, !tbaa !5
  %121 = icmp eq i8 %120, %24
  br i1 %121, label %31, label %122

122:                                              ; preds = %118
  %123 = getelementptr inbounds [50 x i8], [50 x i8]* %2, i64 0, i64 24
  %124 = load i8, i8* %123, align 8, !tbaa !5
  %125 = icmp eq i8 %124, %24
  br i1 %125, label %31, label %126

126:                                              ; preds = %122
  %127 = getelementptr inbounds [50 x i8], [50 x i8]* %2, i64 0, i64 25
  %128 = load i8, i8* %127, align 1, !tbaa !5
  %129 = icmp eq i8 %128, %24
  br i1 %129, label %31, label %130

130:                                              ; preds = %126
  %131 = getelementptr inbounds [50 x i8], [50 x i8]* %2, i64 0, i64 26
  %132 = load i8, i8* %131, align 2, !tbaa !5
  %133 = icmp eq i8 %132, %24
  br i1 %133, label %31, label %134

134:                                              ; preds = %130
  %135 = getelementptr inbounds [50 x i8], [50 x i8]* %2, i64 0, i64 27
  %136 = load i8, i8* %135, align 1, !tbaa !5
  %137 = icmp eq i8 %136, %24
  br i1 %137, label %31, label %138

138:                                              ; preds = %134
  %139 = getelementptr inbounds [50 x i8], [50 x i8]* %2, i64 0, i64 28
  %140 = load i8, i8* %139, align 4, !tbaa !5
  %141 = icmp eq i8 %140, %24
  br i1 %141, label %31, label %142

142:                                              ; preds = %138
  %143 = getelementptr inbounds [50 x i8], [50 x i8]* %2, i64 0, i64 29
  %144 = load i8, i8* %143, align 1, !tbaa !5
  %145 = icmp eq i8 %144, %24
  br i1 %145, label %31, label %146

146:                                              ; preds = %142
  %147 = getelementptr inbounds [50 x i8], [50 x i8]* %2, i64 0, i64 30
  %148 = load i8, i8* %147, align 2, !tbaa !5
  %149 = icmp eq i8 %148, %24
  br i1 %149, label %31, label %150

150:                                              ; preds = %146
  %151 = getelementptr inbounds [50 x i8], [50 x i8]* %2, i64 0, i64 31
  %152 = load i8, i8* %151, align 1, !tbaa !5
  %153 = icmp eq i8 %152, %24
  br i1 %153, label %31, label %154

154:                                              ; preds = %150
  %155 = getelementptr inbounds [50 x i8], [50 x i8]* %2, i64 0, i64 32
  %156 = load i8, i8* %155, align 16, !tbaa !5
  %157 = icmp eq i8 %156, %24
  br i1 %157, label %31, label %158

158:                                              ; preds = %154
  %159 = getelementptr inbounds [50 x i8], [50 x i8]* %2, i64 0, i64 33
  %160 = load i8, i8* %159, align 1, !tbaa !5
  %161 = icmp eq i8 %160, %24
  br i1 %161, label %31, label %162

162:                                              ; preds = %158
  %163 = getelementptr inbounds [50 x i8], [50 x i8]* %2, i64 0, i64 34
  %164 = load i8, i8* %163, align 2, !tbaa !5
  %165 = icmp eq i8 %164, %24
  br i1 %165, label %31, label %166

166:                                              ; preds = %162
  %167 = getelementptr inbounds [50 x i8], [50 x i8]* %2, i64 0, i64 35
  %168 = load i8, i8* %167, align 1, !tbaa !5
  %169 = icmp eq i8 %168, %24
  br i1 %169, label %31, label %170

170:                                              ; preds = %166
  %171 = getelementptr inbounds [50 x i8], [50 x i8]* %2, i64 0, i64 36
  %172 = load i8, i8* %171, align 4, !tbaa !5
  %173 = icmp eq i8 %172, %24
  br i1 %173, label %31, label %174

174:                                              ; preds = %170
  %175 = getelementptr inbounds [50 x i8], [50 x i8]* %2, i64 0, i64 37
  %176 = load i8, i8* %175, align 1, !tbaa !5
  %177 = icmp eq i8 %176, %24
  br i1 %177, label %31, label %178

178:                                              ; preds = %174
  %179 = getelementptr inbounds [50 x i8], [50 x i8]* %2, i64 0, i64 38
  %180 = load i8, i8* %179, align 2, !tbaa !5
  %181 = icmp eq i8 %180, %24
  br i1 %181, label %31, label %182

182:                                              ; preds = %178
  %183 = getelementptr inbounds [50 x i8], [50 x i8]* %2, i64 0, i64 39
  %184 = load i8, i8* %183, align 1, !tbaa !5
  %185 = icmp eq i8 %184, %24
  br i1 %185, label %31, label %186

186:                                              ; preds = %182
  %187 = getelementptr inbounds [50 x i8], [50 x i8]* %2, i64 0, i64 40
  %188 = load i8, i8* %187, align 8, !tbaa !5
  %189 = icmp eq i8 %188, %24
  br i1 %189, label %31, label %190

190:                                              ; preds = %186
  %191 = getelementptr inbounds [50 x i8], [50 x i8]* %2, i64 0, i64 41
  %192 = load i8, i8* %191, align 1, !tbaa !5
  %193 = icmp eq i8 %192, %24
  br i1 %193, label %31, label %194

194:                                              ; preds = %190
  %195 = getelementptr inbounds [50 x i8], [50 x i8]* %2, i64 0, i64 42
  %196 = load i8, i8* %195, align 2, !tbaa !5
  %197 = icmp eq i8 %196, %24
  br i1 %197, label %31, label %198

198:                                              ; preds = %194
  %199 = getelementptr inbounds [50 x i8], [50 x i8]* %2, i64 0, i64 43
  %200 = load i8, i8* %199, align 1, !tbaa !5
  %201 = icmp eq i8 %200, %24
  br i1 %201, label %31, label %202

202:                                              ; preds = %198
  %203 = getelementptr inbounds [50 x i8], [50 x i8]* %2, i64 0, i64 44
  %204 = load i8, i8* %203, align 4, !tbaa !5
  %205 = icmp eq i8 %204, %24
  br i1 %205, label %31, label %206

206:                                              ; preds = %202
  %207 = getelementptr inbounds [50 x i8], [50 x i8]* %2, i64 0, i64 45
  %208 = load i8, i8* %207, align 1, !tbaa !5
  %209 = icmp eq i8 %208, %24
  br i1 %209, label %31, label %210

210:                                              ; preds = %206
  %211 = getelementptr inbounds [50 x i8], [50 x i8]* %2, i64 0, i64 46
  %212 = load i8, i8* %211, align 2, !tbaa !5
  %213 = icmp eq i8 %212, %24
  br i1 %213, label %31, label %214

214:                                              ; preds = %210
  %215 = getelementptr inbounds [50 x i8], [50 x i8]* %2, i64 0, i64 47
  %216 = load i8, i8* %215, align 1, !tbaa !5
  %217 = icmp eq i8 %216, %24
  br i1 %217, label %31, label %218

218:                                              ; preds = %214
  %219 = getelementptr inbounds [50 x i8], [50 x i8]* %2, i64 0, i64 48
  %220 = load i8, i8* %219, align 16, !tbaa !5
  %221 = icmp eq i8 %220, %24
  br i1 %221, label %31, label %222

222:                                              ; preds = %218
  %223 = getelementptr inbounds [50 x i8], [50 x i8]* %2, i64 0, i64 49
  %224 = load i8, i8* %223, align 1, !tbaa !5
  %225 = icmp eq i8 %224, %24
  %226 = select i1 %225, i32 49, i32 0
  br label %31
}

; Function Attrs: argmemonly mustprogress nofree nosync nounwind willreturn
declare void @llvm.lifetime.start.p0i8(i64 immarg, i8* nocapture) #1

; Function Attrs: nofree nounwind
declare noundef i32 @__isoc99_scanf(i8* nocapture noundef readonly, ...) local_unnamed_addr #2

; Function Attrs: nofree nounwind
declare noundef i32 @printf(i8* nocapture noundef readonly, ...) local_unnamed_addr #2

; Function Attrs: argmemonly mustprogress nofree nosync nounwind willreturn
declare void @llvm.lifetime.end.p0i8(i64 immarg, i8* nocapture) #1


!llvm.module.flags = !{!0, !1, !2, !3}
!llvm.ident = !{!4}

!0 = !{i32 1, !"wchar_size", i32 4}
!1 = !{i32 7, !"PIC Level", i32 2}
!2 = !{i32 7, !"PIE Level", i32 2}
!3 = !{i32 7, !"uwtable", i32 1}
!4 = !{!"clang version 13.0.0"}
!5 = !{!6, !6, i64 0}
!6 = !{!"omnipotent char", !7, i64 0}
!7 = !{!"Simple C/C++ TBAA"}
!8 = distinct !{!8, !9}
!9 = !{!"llvm.loop.mustprogress"}
!10 = distinct !{!10, !9}
